target datalayout = "e-m:e-p270:32:32-p271:32:32-p272:64:64-i64:64-i128:128-f80:128-n8:16:32:64-S128"
target triple = "x86_64-pc-linux-gnu"

; Function Attrs: null_pointer_is_valid sspstrong uwtable
define internal i32 @get_starteam_pdu_len(ptr noundef %0, ptr noundef %1, i32 noundef %2, ptr noundef %3) #0 {
  %5 = alloca ptr, align 8
  %6 = alloca ptr, align 8
  %7 = alloca i32, align 4
  %8 = alloca ptr, align 8
  %9 = alloca i32, align 4
  store ptr %0, ptr %5, align 8
  store ptr %1, ptr %6, align 8
  store i32 %2, ptr %7, align 4
  store ptr %3, ptr %8, align 8
  call void @llvm.lifetime.start.p0(i64 4, ptr %9) #4
  store i32 0, ptr %9, align 4
  %10 = load ptr, ptr %6, align 8
  %11 = load i32, ptr %7, align 4
  %12 = call i32 @tvb_captured_length_remaining(ptr noundef %10, i32 noundef %11)
  %13 = icmp sge i32 %12, 8
  br i1 %13, label %14, label %26

14:                                               ; preds = %4
  %15 = load ptr, ptr %6, align 8
  %16 = load i32, ptr %7, align 4
  %17 = add i32 %16, 0
  %18 = call i32 @tvb_get_ntohl(ptr noundef %15, i32 noundef %17)
  %19 = icmp eq i32 %18, 1097621870
  br i1 %19, label %20, label %26

20:                                               ; preds = %14
  %21 = load ptr, ptr %6, align 8
  %22 = load i32, ptr %7, align 4
  %23 = add i32 %22, 4
  %24 = call i32 @tvb_get_letohl(ptr noundef %21, i32 noundef %23)
  %25 = add i32 %24, 16
  store i32 %25, ptr %9, align 4
  br label %44

26:                                               ; preds = %14, %4
  %27 = load ptr, ptr %6, align 8
  %28 = load i32, ptr %7, align 4
  %29 = call i32 @tvb_captured_length_remaining(ptr noundef %27, i32 noundef %28)
  %30 = icmp sge i32 %29, 28
  br i1 %30, label %31, label %43

31:                                               ; preds = %26
  %32 = load ptr, ptr %6, align 8
  %33 = load i32, ptr %7, align 4
  %34 = add i32 %33, 20
  %35 = call i32 @tvb_get_ntohl(ptr noundef %32, i32 noundef %34)
  %36 = icmp eq i32 %35, 1097621870
  br i1 %36, label %37, label %43

37:                                               ; preds = %31
  %38 = load ptr, ptr %6, align 8
  %39 = load i32, ptr %7, align 4
  %40 = add i32 %39, 24
  %41 = call i32 @tvb_get_letohl(ptr noundef %38, i32 noundef %40)
  %42 = add i32 %41, 36
  store i32 %42, ptr %9, align 4
  br label %43

43:                                               ; preds = %37, %31, %26
  br label %44

44:                                               ; preds = %43, %20
  %45 = load i32, ptr %9, align 4
  call void @llvm.lifetime.end.p0(i64 4, ptr %9) #4
  ret i32 %45
}