; Function Attrs: null_pointer_is_valid sspstrong uwtable
define internal i32 @get_starteam_pdu_len(ptr readnone captures(none) %0, ptr noundef %1, i32 noundef %2, ptr readnone captures(none) %3) #0 {
  %5 = tail call i32 @tvb_captured_length_remaining(ptr noundef %1, i32 noundef %2)
  %6 = icmp sgt i32 %5, 7
  br i1 %6, label %7, label %10

7:                                                ; preds = %4
  %8 = tail call i32 @tvb_get_ntohl(ptr noundef %1, i32 noundef %2)
  %9 = icmp eq i32 %8, 1097621870
  br i1 %9, label %.sink.split, label %10

10:                                               ; preds = %7, %4
  %11 = tail call i32 @tvb_captured_length_remaining(ptr noundef %1, i32 noundef %2)
  %12 = icmp sgt i32 %11, 27
  br i1 %12, label %13, label %20

13:                                               ; preds = %10
  %14 = add i32 %2, 20
  %15 = tail call i32 @tvb_get_ntohl(ptr noundef %1, i32 noundef %14)
  %16 = icmp eq i32 %15, 1097621870
  br i1 %16, label %.sink.split, label %20

.sink.split:                                      ; preds = %13, %7
  %.sink = phi i32 [ 4, %7 ], [ 24, %13 ]
  %.sink12 = phi i32 [ 16, %7 ], [ 36, %13 ]
  %17 = add i32 %2, %.sink
  %18 = tail call i32 @tvb_get_letohl(ptr noundef %1, i32 noundef %17)
  %19 = add i32 %18, %.sink12
  br label %20

20:                                               ; preds = %.sink.split, %10, %13
  %.0 = phi i32 [ 0, %13 ], [ 0, %10 ], [ %19, %.sink.split ]
  ret i32 %.0
}